target datalayout = "e-m:e-p270:32:32-p271:32:32-p272:64:64-i64:64-i128:128-f80:128-n8:16:32:64-S128"
target triple = "x86_64-pc-linux-gnu"

%struct.AVComplexInt32 = type { i32, i32 }
%struct.AVTXContext = type { i32, i32, ptr, ptr, ptr, ptr, [4 x ptr], i32, [4 x ptr], ptr, i32, i64, i32, float, double, ptr }

; Function Attrs: nounwind uwtable
define internal void @ff_tx_fft_naive_small_int32_c(ptr noundef %0, ptr noundef %1, ptr noundef %2, i64 noundef %3) #4 {
  %5 = alloca ptr, align 8
  %6 = alloca ptr, align 8
  %7 = alloca ptr, align 8
  %8 = alloca i64, align 8
  %9 = alloca ptr, align 8
  %10 = alloca ptr, align 8
  %11 = alloca i32, align 4
  %12 = alloca i32, align 4
  %13 = alloca i32, align 4
  %14 = alloca %struct.AVComplexInt32, align 4
  %15 = alloca i32, align 4
  %16 = alloca %struct.AVComplexInt32, align 4
  %17 = alloca %struct.AVComplexInt32, align 4
  %18 = alloca i64, align 8
  store ptr %0, ptr %5, align 8, !tbaa !17
  store ptr %1, ptr %6, align 8, !tbaa !8
  store ptr %2, ptr %7, align 8, !tbaa !8
  store i64 %3, ptr %8, align 8, !tbaa !30
  call void @llvm.lifetime.start.p0(i64 8, ptr %9) #10
  %19 = load ptr, ptr %7, align 8, !tbaa !8
  store ptr %19, ptr %9, align 8, !tbaa !57
  call void @llvm.lifetime.start.p0(i64 8, ptr %10) #10
  %20 = load ptr, ptr %6, align 8, !tbaa !8
  store ptr %20, ptr %10, align 8, !tbaa !57
  call void @llvm.lifetime.start.p0(i64 4, ptr %11) #10
  %21 = load ptr, ptr %5, align 8, !tbaa !17
  %22 = getelementptr inbounds nuw %struct.AVTXContext, ptr %21, i32 0, i32 0
  %23 = load i32, ptr %22, align 8, !tbaa !21
  store i32 %23, ptr %11, align 4, !tbaa !4
  %24 = load i64, ptr %8, align 8, !tbaa !30
  %25 = udiv i64 %24, 8
  store i64 %25, ptr %8, align 8, !tbaa !30
  call void @llvm.lifetime.start.p0(i64 4, ptr %12) #10
  store i32 0, ptr %12, align 4, !tbaa !4
  br label %26

26:                                               ; preds = %127, %4
  %27 = load i32, ptr %12, align 4, !tbaa !4
  %28 = load i32, ptr %11, align 4, !tbaa !4
  %29 = icmp slt i32 %27, %28
  br i1 %29, label %31, label %30

30:                                               ; preds = %26
  store i32 2, ptr %13, align 4
  call void @llvm.lifetime.end.p0(i64 4, ptr %12) #10
  br label %130

31:                                               ; preds = %26
  call void @llvm.lifetime.start.p0(i64 8, ptr %14) #10
  call void @llvm.memset.p0.i64(ptr align 4 %14, i8 0, i64 8, i1 false)
  call void @llvm.lifetime.start.p0(i64 4, ptr %15) #10
  store i32 0, ptr %15, align 4, !tbaa !4
  br label %32

32:                                               ; preds = %117, %31
  %33 = load i32, ptr %15, align 4, !tbaa !4
  %34 = load i32, ptr %11, align 4, !tbaa !4
  %35 = icmp slt i32 %33, %34
  br i1 %35, label %37, label %36

36:                                               ; preds = %32
  store i32 5, ptr %13, align 4
  call void @llvm.lifetime.end.p0(i64 4, ptr %15) #10
  br label %120

37:                                               ; preds = %32
  call void @llvm.lifetime.start.p0(i64 8, ptr %16) #10
  call void @llvm.lifetime.start.p0(i64 8, ptr %17) #10
  %38 = load ptr, ptr %5, align 8, !tbaa !17
  %39 = getelementptr inbounds nuw %struct.AVTXContext, ptr %38, i32 0, i32 3
  %40 = load ptr, ptr %39, align 8, !tbaa !31
  %41 = load i32, ptr %12, align 4, !tbaa !4
  %42 = load i32, ptr %15, align 4, !tbaa !4
  %43 = mul nsw i32 %41, %42
  %44 = sext i32 %43 to i64
  %45 = getelementptr inbounds %struct.AVComplexInt32, ptr %40, i64 %44
  call void @llvm.memcpy.p0.p0.i64(ptr align 4 %17, ptr align 4 %45, i64 8, i1 false), !tbaa.struct !35
  br label %46

46:                                               ; preds = %37
  call void @llvm.lifetime.start.p0(i64 8, ptr %18) #10
  %47 = getelementptr inbounds nuw %struct.AVComplexInt32, ptr %17, i32 0, i32 0
  %48 = load i32, ptr %47, align 4, !tbaa !32
  %49 = sext i32 %48 to i64
  %50 = load ptr, ptr %9, align 8, !tbaa !57
  %51 = load i32, ptr %15, align 4, !tbaa !4
  %52 = sext i32 %51 to i64
  %53 = getelementptr inbounds %struct.AVComplexInt32, ptr %50, i64 %52
  %54 = getelementptr inbounds nuw %struct.AVComplexInt32, ptr %53, i32 0, i32 0
  %55 = load i32, ptr %54, align 4, !tbaa !32
  %56 = sext i32 %55 to i64
  %57 = mul nsw i64 %49, %56
  store i64 %57, ptr %18, align 8, !tbaa !30
  %58 = getelementptr inbounds nuw %struct.AVComplexInt32, ptr %17, i32 0, i32 1
  %59 = load i32, ptr %58, align 4, !tbaa !34
  %60 = sext i32 %59 to i64
  %61 = load ptr, ptr %9, align 8, !tbaa !57
  %62 = load i32, ptr %15, align 4, !tbaa !4
  %63 = sext i32 %62 to i64
  %64 = getelementptr inbounds %struct.AVComplexInt32, ptr %61, i64 %63
  %65 = getelementptr inbounds nuw %struct.AVComplexInt32, ptr %64, i32 0, i32 1
  %66 = load i32, ptr %65, align 4, !tbaa !34
  %67 = sext i32 %66 to i64
  %68 = mul nsw i64 %60, %67
  %69 = load i64, ptr %18, align 8, !tbaa !30
  %70 = sub nsw i64 %69, %68
  store i64 %70, ptr %18, align 8, !tbaa !30
  %71 = load i64, ptr %18, align 8, !tbaa !30
  %72 = add nsw i64 %71, 1073741824
  %73 = ashr i64 %72, 31
  %74 = trunc i64 %73 to i32
  %75 = getelementptr inbounds nuw %struct.AVComplexInt32, ptr %16, i32 0, i32 0
  store i32 %74, ptr %75, align 4, !tbaa !32
  %76 = getelementptr inbounds nuw %struct.AVComplexInt32, ptr %17, i32 0, i32 1
  %77 = load i32, ptr %76, align 4, !tbaa !34
  %78 = sext i32 %77 to i64
  %79 = load ptr, ptr %9, align 8, !tbaa !57
  %80 = load i32, ptr %15, align 4, !tbaa !4
  %81 = sext i32 %80 to i64
  %82 = getelementptr inbounds %struct.AVComplexInt32, ptr %79, i64 %81
  %83 = getelementptr inbounds nuw %struct.AVComplexInt32, ptr %82, i32 0, i32 0
  %84 = load i32, ptr %83, align 4, !tbaa !32
  %85 = sext i32 %84 to i64
  %86 = mul nsw i64 %78, %85
  store i64 %86, ptr %18, align 8, !tbaa !30
  %87 = getelementptr inbounds nuw %struct.AVComplexInt32, ptr %17, i32 0, i32 0
  %88 = load i32, ptr %87, align 4, !tbaa !32
  %89 = sext i32 %88 to i64
  %90 = load ptr, ptr %9, align 8, !tbaa !57
  %91 = load i32, ptr %15, align 4, !tbaa !4
  %92 = sext i32 %91 to i64
  %93 = getelementptr inbounds %struct.AVComplexInt32, ptr %90, i64 %92
  %94 = getelementptr inbounds nuw %struct.AVComplexInt32, ptr %93, i32 0, i32 1
  %95 = load i32, ptr %94, align 4, !tbaa !34
  %96 = sext i32 %95 to i64
  %97 = mul nsw i64 %89, %96
  %98 = load i64, ptr %18, align 8, !tbaa !30
  %99 = add nsw i64 %98, %97
  store i64 %99, ptr %18, align 8, !tbaa !30
  %100 = load i64, ptr %18, align 8, !tbaa !30
  %101 = add nsw i64 %100, 1073741824
  %102 = ashr i64 %101, 31
  %103 = trunc i64 %102 to i32
  %104 = getelementptr inbounds nuw %struct.AVComplexInt32, ptr %16, i32 0, i32 1
  store i32 %103, ptr %104, align 4, !tbaa !34
  call void @llvm.lifetime.end.p0(i64 8, ptr %18) #10
  br label %105

105:                                              ; preds = %46
  br label %106

106:                                              ; preds = %105
  %107 = getelementptr inbounds nuw %struct.AVComplexInt32, ptr %16, i32 0, i32 0
  %108 = load i32, ptr %107, align 4, !tbaa !32
  %109 = getelementptr inbounds nuw %struct.AVComplexInt32, ptr %14, i32 0, i32 0
  %110 = load i32, ptr %109, align 4, !tbaa !32
  %111 = add nsw i32 %110, %108
  store i32 %111, ptr %109, align 4, !tbaa !32
  %112 = getelementptr inbounds nuw %struct.AVComplexInt32, ptr %16, i32 0, i32 1
  %113 = load i32, ptr %112, align 4, !tbaa !34
  %114 = getelementptr inbounds nuw %struct.AVComplexInt32, ptr %14, i32 0, i32 1
  %115 = load i32, ptr %114, align 4, !tbaa !34
  %116 = add nsw i32 %115, %113
  store i32 %116, ptr %114, align 4, !tbaa !34
  call void @llvm.lifetime.end.p0(i64 8, ptr %17) #10
  call void @llvm.lifetime.end.p0(i64 8, ptr %16) #10
  br label %117

117:                                              ; preds = %106
  %118 = load i32, ptr %15, align 4, !tbaa !4
  %119 = add nsw i32 %118, 1
  store i32 %119, ptr %15, align 4, !tbaa !4
  br label %32, !llvm.loop !85

120:                                              ; preds = %36
  %121 = load ptr, ptr %10, align 8, !tbaa !57
  %122 = load i32, ptr %12, align 4, !tbaa !4
  %123 = sext i32 %122 to i64
  %124 = load i64, ptr %8, align 8, !tbaa !30
  %125 = mul nsw i64 %123, %124
  %126 = getelementptr inbounds %struct.AVComplexInt32, ptr %121, i64 %125
  call void @llvm.memcpy.p0.p0.i64(ptr align 4 %126, ptr align 4 %14, i64 8, i1 false), !tbaa.struct !35
  call void @llvm.lifetime.end.p0(i64 8, ptr %14) #10
  br label %127

127:                                              ; preds = %120
  %128 = load i32, ptr %12, align 4, !tbaa !4
  %129 = add nsw i32 %128, 1
  store i32 %129, ptr %12, align 4, !tbaa !4
  br label %26, !llvm.loop !86

130:                                              ; preds = %30
  call void @llvm.lifetime.end.p0(i64 4, ptr %11) #10
  call void @llvm.lifetime.end.p0(i64 8, ptr %10) #10
  call void @llvm.lifetime.end.p0(i64 8, ptr %9) #10
  ret void
}