; Function Attrs: nofree norecurse nosync nounwind memory(read, argmem: readwrite, inaccessiblemem: none) uwtable
define internal void @ff_tx_fft_naive_small_int32_c(ptr noundef readonly captures(none) %0, ptr noundef writeonly captures(none) %1, ptr noundef readonly captures(none) %2, i64 noundef %3) #12 {
  %5 = load i32, ptr %0, align 8, !tbaa !16
  %6 = lshr i64 %3, 3
  %7 = icmp sgt i32 %5, 0
  br i1 %7, label %.preheader.lr.ph, label %._crit_edge39

.preheader.lr.ph:                                 ; preds = %4
  %8 = getelementptr inbounds nuw i8, ptr %0, i64 16
  %9 = load ptr, ptr %8, align 8, !tbaa !26
  %wide.trip.count45 = zext nneg i32 %5 to i64
  br label %.preheader.us

.preheader.us:                                    ; preds = %._crit_edge.us, %.preheader.lr.ph
  %indvars.iv42 = phi i64 [ %indvars.iv.next43, %._crit_edge.us ], [ 0, %.preheader.lr.ph ]
  br label %10

10:                                               ; preds = %.preheader.us, %10
  %indvars.iv = phi i64 [ 0, %.preheader.us ], [ %indvars.iv.next, %10 ]
  %.sroa.014.136.us = phi i32 [ 0, %.preheader.us ], [ %33, %10 ]
  %.sroa.6.135.us = phi i32 [ 0, %.preheader.us ], [ %34, %10 ]
  %11 = mul nuw nsw i64 %indvars.iv, %indvars.iv42
  %12 = getelementptr inbounds nuw %struct.AVComplexInt32, ptr %9, i64 %11
  %.sroa.0.0.copyload.us = load i32, ptr %12, align 4, !tbaa !10
  %.sroa.5.0..sroa_idx.us = getelementptr inbounds nuw i8, ptr %12, i64 4
  %.sroa.5.0.copyload.us = load i32, ptr %.sroa.5.0..sroa_idx.us, align 4, !tbaa !10
  %13 = sext i32 %.sroa.0.0.copyload.us to i64
  %14 = getelementptr inbounds nuw %struct.AVComplexInt32, ptr %2, i64 %indvars.iv
  %15 = load i32, ptr %14, align 4, !tbaa !48
  %16 = sext i32 %15 to i64
  %17 = mul nsw i64 %16, %13
  %18 = sext i32 %.sroa.5.0.copyload.us to i64
  %19 = getelementptr inbounds nuw i8, ptr %14, i64 4
  %20 = load i32, ptr %19, align 4, !tbaa !50
  %21 = sext i32 %20 to i64
  %22 = mul nsw i64 %21, %18
  %23 = add nsw i64 %17, 1073741824
  %24 = sub nsw i64 %23, %22
  %25 = lshr i64 %24, 31
  %26 = trunc i64 %25 to i32
  %27 = mul nsw i64 %16, %18
  %28 = mul nsw i64 %21, %13
  %29 = add nsw i64 %27, 1073741824
  %30 = add i64 %29, %28
  %31 = lshr i64 %30, 31
  %32 = trunc i64 %31 to i32
  %33 = add nsw i32 %.sroa.014.136.us, %26
  %34 = add nsw i32 %.sroa.6.135.us, %32
  %indvars.iv.next = add nuw nsw i64 %indvars.iv, 1
  %exitcond.not = icmp eq i64 %indvars.iv.next, %wide.trip.count45
  br i1 %exitcond.not, label %._crit_edge.us, label %10, !llvm.loop !76

._crit_edge.us:                                   ; preds = %10
  %35 = mul nuw nsw i64 %6, %indvars.iv42
  %36 = getelementptr inbounds nuw %struct.AVComplexInt32, ptr %1, i64 %35
  store i32 %33, ptr %36, align 4, !tbaa !10
  %.sroa.6.0..sroa_idx.us = getelementptr inbounds nuw i8, ptr %36, i64 4
  store i32 %34, ptr %.sroa.6.0..sroa_idx.us, align 4, !tbaa !10
  %indvars.iv.next43 = add nuw nsw i64 %indvars.iv42, 1
  %exitcond46.not = icmp eq i64 %indvars.iv.next43, %wide.trip.count45
  br i1 %exitcond46.not, label %._crit_edge39, label %.preheader.us, !llvm.loop !77

._crit_edge39:                                    ; preds = %._crit_edge.us, %4
  ret void
}